; Function Attrs: nofree norecurse nosync nounwind memory(argmem: readwrite) uwtable
define internal void @put_pixels16_y2_8_c(ptr noundef writeonly captures(none) %0, ptr noundef readonly captures(none) %1, i64 noundef %2, i32 noundef %3) #1 {
  %5 = getelementptr inbounds i8, ptr %1, i64 %2
  %6 = icmp sgt i32 %3, 0
  br i1 %6, label %.lr.ph.preheader.i.i, label %put_pixels8_y2_8_c.exit14

.lr.ph.preheader.i.i:                             ; preds = %4
  %sext.i = shl i64 %2, 32
  %7 = ashr exact i64 %sext.i, 32
  %wide.trip.count.i.i = zext nneg i32 %3 to i64
  br label %.lr.ph.i.i

.lr.ph.i.i:                                       ; preds = %.lr.ph.i.i, %.lr.ph.preheader.i.i
  %indvars.iv.i.i = phi i64 [ 0, %.lr.ph.preheader.i.i ], [ %indvars.iv.next.i.i, %.lr.ph.i.i ]
  %8 = mul nsw i64 %indvars.iv.i.i, %7
  %9 = getelementptr inbounds i8, ptr %1, i64 %8
  %10 = load i32, ptr %9, align 1, !tbaa !8
  %11 = getelementptr inbounds i8, ptr %5, i64 %8
  %12 = load i32, ptr %11, align 1, !tbaa !8
  %13 = or i32 %12, %10
  %14 = xor i32 %12, %10
  %15 = lshr i32 %14, 1
  %16 = and i32 %15, 2139062143
  %17 = sub i32 %13, %16
  %18 = getelementptr inbounds i8, ptr %0, i64 %8
  store i32 %17, ptr %18, align 4, !tbaa !9
  %19 = getelementptr i8, ptr %9, i64 4
  %20 = load i32, ptr %19, align 1, !tbaa !8
  %21 = getelementptr i8, ptr %11, i64 4
  %22 = load i32, ptr %21, align 1, !tbaa !8
  %23 = or i32 %22, %20
  %24 = xor i32 %22, %20
  %25 = lshr i32 %24, 1
  %26 = and i32 %25, 2139062143
  %27 = sub i32 %23, %26
  %28 = getelementptr i8, ptr %18, i64 4
  store i32 %27, ptr %28, align 4, !tbaa !9
  %indvars.iv.next.i.i = add nuw nsw i64 %indvars.iv.i.i, 1
  %exitcond.not.i.i = icmp eq i64 %indvars.iv.next.i.i, %wide.trip.count.i.i
  br i1 %exitcond.not.i.i, label %.lr.ph.preheader.i.i7, label %.lr.ph.i.i, !llvm.loop !13

.lr.ph.preheader.i.i7:                            ; preds = %.lr.ph.i.i
  %29 = getelementptr inbounds nuw i8, ptr %0, i64 8
  %30 = getelementptr inbounds nuw i8, ptr %1, i64 8
  %31 = getelementptr inbounds i8, ptr %30, i64 %2
  br label %.lr.ph.i.i10

.lr.ph.i.i10:                                     ; preds = %.lr.ph.i.i10, %.lr.ph.preheader.i.i7
  %indvars.iv.i.i11 = phi i64 [ 0, %.lr.ph.preheader.i.i7 ], [ %indvars.iv.next.i.i12, %.lr.ph.i.i10 ]
  %32 = mul nsw i64 %indvars.iv.i.i11, %7
  %33 = getelementptr inbounds i8, ptr %30, i64 %32
  %34 = load i32, ptr %33, align 1, !tbaa !8
  %35 = getelementptr inbounds i8, ptr %31, i64 %32
  %36 = load i32, ptr %35, align 1, !tbaa !8
  %37 = or i32 %36, %34
  %38 = xor i32 %36, %34
  %39 = lshr i32 %38, 1
  %40 = and i32 %39, 2139062143
  %41 = sub i32 %37, %40
  %42 = getelementptr inbounds i8, ptr %29, i64 %32
  store i32 %41, ptr %42, align 4, !tbaa !9
  %43 = getelementptr i8, ptr %33, i64 4
  %44 = load i32, ptr %43, align 1, !tbaa !8
  %45 = getelementptr i8, ptr %35, i64 4
  %46 = load i32, ptr %45, align 1, !tbaa !8
  %47 = or i32 %46, %44
  %48 = xor i32 %46, %44
  %49 = lshr i32 %48, 1
  %50 = and i32 %49, 2139062143
  %51 = sub i32 %47, %50
  %52 = getelementptr i8, ptr %42, i64 4
  store i32 %51, ptr %52, align 4, !tbaa !9
  %indvars.iv.next.i.i12 = add nuw nsw i64 %indvars.iv.i.i11, 1
  %exitcond.not.i.i13 = icmp eq i64 %indvars.iv.next.i.i12, %wide.trip.count.i.i
  br i1 %exitcond.not.i.i13, label %put_pixels8_y2_8_c.exit14, label %.lr.ph.i.i10, !llvm.loop !13

put_pixels8_y2_8_c.exit14:                        ; preds = %.lr.ph.i.i10, %4
  ret void
}